; Function Attrs: nounwind uwtable
define i32 @pmix_bfrops_base_unpack_regex(ptr noundef readnone captures(none) %0, ptr noundef %1, ptr noundef %2, ptr noundef captures(none) %3, i16 noundef zeroext %4) local_unnamed_addr #0 {
  %6 = load i32, ptr getelementptr inbounds nuw (i8, ptr @pmix_bfrops_base_framework, i64 76), align 4, !tbaa !7
  %or.cond = icmp ult i32 %6, 64
  br i1 %or.cond, label %7, label %14

7:                                                ; preds = %5
  %8 = zext nneg i32 %6 to i64
  %9 = getelementptr inbounds nuw [0 x %struct.pmix_output_desc_t], ptr @pmix_output_info, i64 0, i64 %8, i32 2
  %10 = load i32, ptr %9, align 4, !tbaa !19
  %11 = icmp sgt i32 %10, 19
  br i1 %11, label %12, label %14

12:                                               ; preds = %7
  %13 = load i32, ptr %3, align 4, !tbaa !3
  tail call void (i32, ptr, ...) @pmix_output(i32 noundef %6, ptr noundef nonnull @.str.33, i32 noundef %13) #10
  br label %14

14:                                               ; preds = %12, %7, %5
  %15 = load i32, ptr %3, align 4, !tbaa !3
  %16 = icmp sgt i32 %15, 0
  br i1 %16, label %.lr.ph.preheader, label %.loopexit

.lr.ph.preheader:                                 ; preds = %14
  %wide.trip.count = zext nneg i32 %15 to i64
  br label %.lr.ph

17:                                               ; preds = %.lr.ph
  %indvars.iv.next = add nuw nsw i64 %indvars.iv, 1
  %exitcond.not = icmp eq i64 %indvars.iv.next, %wide.trip.count
  br i1 %exitcond.not, label %.loopexit, label %.lr.ph, !llvm.loop !128

.lr.ph:                                           ; preds = %.lr.ph.preheader, %17
  %indvars.iv = phi i64 [ 0, %.lr.ph.preheader ], [ %indvars.iv.next, %17 ]
  %18 = load ptr, ptr getelementptr inbounds nuw (i8, ptr @pmix_preg, i64 56), align 8, !tbaa !129
  %19 = getelementptr inbounds nuw ptr, ptr %2, i64 %indvars.iv
  %20 = tail call i32 %18(ptr noundef %1, ptr noundef %19) #10
  %.not = icmp eq i32 %20, 0
  br i1 %.not, label %17, label %21

21:                                               ; preds = %.lr.ph
  store i32 0, ptr %3, align 4, !tbaa !3
  br label %.loopexit

.loopexit:                                        ; preds = %17, %14, %21
  %.0 = phi i32 [ %20, %21 ], [ 0, %14 ], [ 0, %17 ]
  ret i32 %.0
}